target datalayout = "e-m:e-p270:32:32-p271:32:32-p272:64:64-i64:64-i128:128-f80:128-n8:16:32:64-S128"
target triple = "x86_64-pc-linux-gnu"

%struct.ForEachState = type { ptr, i32 }
%union.ListCell = type { ptr }
%struct.PlannerInfo = type { i32, ptr, ptr, i32, ptr, ptr, ptr, ptr, i32, ptr, ptr, ptr, ptr, ptr, ptr, ptr, ptr, i32, ptr, ptr, ptr, ptr, ptr, i8, ptr, ptr, ptr, ptr, ptr, i32, ptr, ptr, ptr, ptr, ptr, ptr, ptr, i32, ptr, ptr, ptr, i32, ptr, ptr, ptr, ptr, ptr, ptr, [8 x ptr], [8 x ptr], ptr, ptr, ptr, ptr, ptr, ptr, ptr, double, double, double, i32, i8, i8, i8, i8, i8, i8, i8, i32, ptr, ptr, i32, i8, i8, i32, ptr, ptr, ptr, ptr, ptr, ptr, i8, ptr }
%struct.List = type { i32, i32, i32, ptr, [0 x %union.ListCell] }
%struct.EquivalenceClass = type { i32, ptr, i32, ptr, ptr, ptr, ptr, i8, i8, i8, i32, i32, i32, ptr }
%struct.EquivalenceMember = type { i32, ptr, ptr, i8, i8, i32, ptr, ptr }

; Function Attrs: inlinehint nounwind uwtable
define internal i32 @list_length(ptr noundef %0) #2 {
  %2 = alloca ptr, align 8
  store ptr %0, ptr %2, align 8
  %3 = load ptr, ptr %2, align 8
  %4 = icmp ne ptr %3, null
  br i1 %4, label %5, label %9

5:                                                ; preds = %1
  %6 = load ptr, ptr %2, align 8
  %7 = getelementptr inbounds nuw %struct.List, ptr %6, i32 0, i32 1
  %8 = load i32, ptr %7, align 4
  br label %10

9:                                                ; preds = %1
  br label %10

10:                                               ; preds = %9, %5
  %11 = phi i32 [ %8, %5 ], [ 0, %9 ]
  ret i32 %11
}

; Function Attrs: nounwind uwtable
define dso_local void @rebuild_eclass_attr_needed(ptr noundef %0) #0 {
  %2 = alloca ptr, align 8
  %3 = alloca ptr, align 8
  %4 = alloca %struct.ForEachState, align 8
  %5 = alloca i32, align 4
  %6 = alloca ptr, align 8
  %7 = alloca ptr, align 8
  %8 = alloca %struct.ForEachState, align 8
  %9 = alloca ptr, align 8
  %10 = alloca ptr, align 8
  store ptr %0, ptr %2, align 8
  call void @llvm.lifetime.start.p0(i64 8, ptr %3) #6
  call void @llvm.lifetime.start.p0(i64 16, ptr %4) #6
  %11 = getelementptr inbounds nuw %struct.ForEachState, ptr %4, i32 0, i32 0
  %12 = load ptr, ptr %2, align 8
  %13 = getelementptr inbounds nuw %struct.PlannerInfo, ptr %12, i32 0, i32 22
  %14 = load ptr, ptr %13, align 8
  store ptr %14, ptr %11, align 8
  %15 = getelementptr inbounds nuw %struct.ForEachState, ptr %4, i32 0, i32 1
  store i32 0, ptr %15, align 8
  %16 = getelementptr i8, ptr %4, i64 12
  call void @llvm.memset.p0.i64(ptr align 4 %16, i8 0, i64 4, i1 false)
  br label %17

17:                                               ; preds = %108, %1
  %18 = getelementptr inbounds nuw %struct.ForEachState, ptr %4, i32 0, i32 0
  %19 = load ptr, ptr %18, align 8
  %20 = icmp ne ptr %19, null
  br i1 %20, label %21, label %38

21:                                               ; preds = %17
  %22 = getelementptr inbounds nuw %struct.ForEachState, ptr %4, i32 0, i32 1
  %23 = load i32, ptr %22, align 8
  %24 = getelementptr inbounds nuw %struct.ForEachState, ptr %4, i32 0, i32 0
  %25 = load ptr, ptr %24, align 8
  %26 = getelementptr inbounds nuw %struct.List, ptr %25, i32 0, i32 1
  %27 = load i32, ptr %26, align 4
  %28 = icmp slt i32 %23, %27
  br i1 %28, label %29, label %38

29:                                               ; preds = %21
  %30 = getelementptr inbounds nuw %struct.ForEachState, ptr %4, i32 0, i32 0
  %31 = load ptr, ptr %30, align 8
  %32 = getelementptr inbounds nuw %struct.List, ptr %31, i32 0, i32 3
  %33 = load ptr, ptr %32, align 8
  %34 = getelementptr inbounds nuw %struct.ForEachState, ptr %4, i32 0, i32 1
  %35 = load i32, ptr %34, align 8
  %36 = sext i32 %35 to i64
  %37 = getelementptr inbounds %union.ListCell, ptr %33, i64 %36
  store ptr %37, ptr %3, align 8
  br label %39

38:                                               ; preds = %21, %17
  store ptr null, ptr %3, align 8
  br label %39

39:                                               ; preds = %38, %29
  %40 = phi i32 [ 1, %29 ], [ 0, %38 ]
  %41 = icmp ne i32 %40, 0
  br i1 %41, label %43, label %42

42:                                               ; preds = %39
  store i32 2, ptr %5, align 4
  call void @llvm.lifetime.end.p0(i64 16, ptr %4) #6
  br label %112

43:                                               ; preds = %39
  call void @llvm.lifetime.start.p0(i64 8, ptr %6) #6
  %44 = load ptr, ptr %3, align 8
  %45 = load ptr, ptr %44, align 8
  store ptr %45, ptr %6, align 8
  %46 = load ptr, ptr %6, align 8
  %47 = getelementptr inbounds nuw %struct.EquivalenceClass, ptr %46, i32 0, i32 3
  %48 = load ptr, ptr %47, align 8
  %49 = call i32 @list_length(ptr noundef %48)
  %50 = icmp sgt i32 %49, 1
  br i1 %50, label %51, label %107

51:                                               ; preds = %43
  %52 = load ptr, ptr %6, align 8
  %53 = getelementptr inbounds nuw %struct.EquivalenceClass, ptr %52, i32 0, i32 7
  %54 = load i8, ptr %53, align 8, !range !4, !noundef !5
  %55 = trunc i8 %54 to i1
  br i1 %55, label %107, label %56

56:                                               ; preds = %51
  call void @llvm.lifetime.start.p0(i64 8, ptr %7) #6
  call void @llvm.lifetime.start.p0(i64 16, ptr %8) #6
  %57 = getelementptr inbounds nuw %struct.ForEachState, ptr %8, i32 0, i32 0
  %58 = load ptr, ptr %6, align 8
  %59 = getelementptr inbounds nuw %struct.EquivalenceClass, ptr %58, i32 0, i32 3
  %60 = load ptr, ptr %59, align 8
  store ptr %60, ptr %57, align 8
  %61 = getelementptr inbounds nuw %struct.ForEachState, ptr %8, i32 0, i32 1
  store i32 0, ptr %61, align 8
  %62 = getelementptr i8, ptr %8, i64 12
  call void @llvm.memset.p0.i64(ptr align 4 %62, i8 0, i64 4, i1 false)
  br label %63

63:                                               ; preds = %102, %56
  %64 = getelementptr inbounds nuw %struct.ForEachState, ptr %8, i32 0, i32 0
  %65 = load ptr, ptr %64, align 8
  %66 = icmp ne ptr %65, null
  br i1 %66, label %67, label %84

67:                                               ; preds = %63
  %68 = getelementptr inbounds nuw %struct.ForEachState, ptr %8, i32 0, i32 1
  %69 = load i32, ptr %68, align 8
  %70 = getelementptr inbounds nuw %struct.ForEachState, ptr %8, i32 0, i32 0
  %71 = load ptr, ptr %70, align 8
  %72 = getelementptr inbounds nuw %struct.List, ptr %71, i32 0, i32 1
  %73 = load i32, ptr %72, align 4
  %74 = icmp slt i32 %69, %73
  br i1 %74, label %75, label %84

75:                                               ; preds = %67
  %76 = getelementptr inbounds nuw %struct.ForEachState, ptr %8, i32 0, i32 0
  %77 = load ptr, ptr %76, align 8
  %78 = getelementptr inbounds nuw %struct.List, ptr %77, i32 0, i32 3
  %79 = load ptr, ptr %78, align 8
  %80 = getelementptr inbounds nuw %struct.ForEachState, ptr %8, i32 0, i32 1
  %81 = load i32, ptr %80, align 8
  %82 = sext i32 %81 to i64
  %83 = getelementptr inbounds %union.ListCell, ptr %79, i64 %82
  store ptr %83, ptr %7, align 8
  br label %85

84:                                               ; preds = %67, %63
  store ptr null, ptr %7, align 8
  br label %85

85:                                               ; preds = %84, %75
  %86 = phi i32 [ 1, %75 ], [ 0, %84 ]
  %87 = icmp ne i32 %86, 0
  br i1 %87, label %89, label %88

88:                                               ; preds = %85
  store i32 5, ptr %5, align 4
  call void @llvm.lifetime.end.p0(i64 16, ptr %8) #6
  br label %106

89:                                               ; preds = %85
  call void @llvm.lifetime.start.p0(i64 8, ptr %9) #6
  %90 = load ptr, ptr %7, align 8
  %91 = load ptr, ptr %90, align 8
  store ptr %91, ptr %9, align 8
  call void @llvm.lifetime.start.p0(i64 8, ptr %10) #6
  %92 = load ptr, ptr %9, align 8
  %93 = getelementptr inbounds nuw %struct.EquivalenceMember, ptr %92, i32 0, i32 1
  %94 = load ptr, ptr %93, align 8
  %95 = call ptr @pull_var_clause(ptr noundef %94, i32 noundef 26)
  store ptr %95, ptr %10, align 8
  %96 = load ptr, ptr %2, align 8
  %97 = load ptr, ptr %10, align 8
  %98 = load ptr, ptr %6, align 8
  %99 = getelementptr inbounds nuw %struct.EquivalenceClass, ptr %98, i32 0, i32 6
  %100 = load ptr, ptr %99, align 8
  call void @add_vars_to_attr_needed(ptr noundef %96, ptr noundef %97, ptr noundef %100)
  %101 = load ptr, ptr %10, align 8
  call void @list_free(ptr noundef %101)
  call void @llvm.lifetime.end.p0(i64 8, ptr %10) #6
  call void @llvm.lifetime.end.p0(i64 8, ptr %9) #6
  br label %102

102:                                              ; preds = %89
  %103 = getelementptr inbounds nuw %struct.ForEachState, ptr %8, i32 0, i32 1
  %104 = load i32, ptr %103, align 8
  %105 = add i32 %104, 1
  store i32 %105, ptr %103, align 8
  br label %63, !llvm.loop !46

106:                                              ; preds = %88
  call void @llvm.lifetime.end.p0(i64 8, ptr %7) #6
  br label %107

107:                                              ; preds = %106, %51, %43
  call void @llvm.lifetime.end.p0(i64 8, ptr %6) #6
  br label %108

108:                                              ; preds = %107
  %109 = getelementptr inbounds nuw %struct.ForEachState, ptr %4, i32 0, i32 1
  %110 = load i32, ptr %109, align 8
  %111 = add i32 %110, 1
  store i32 %111, ptr %109, align 8
  br label %17, !llvm.loop !47

112:                                              ; preds = %42
  call void @llvm.lifetime.end.p0(i64 8, ptr %3) #6
  ret void
}