; Function Attrs: nounwind uwtable
define dso_local void @rebuild_eclass_attr_needed(ptr noundef %0) local_unnamed_addr #0 {
  %2 = getelementptr inbounds nuw i8, ptr %0, i64 176
  %3 = load ptr, ptr %2, align 8
  %4 = getelementptr inbounds nuw i8, ptr %3, i64 4
  %.not = icmp eq ptr %3, null
  br i1 %.not, label %._crit_edge, label %.lr.ph36

.lr.ph36:                                         ; preds = %1
  %5 = getelementptr inbounds nuw i8, ptr %3, i64 16
  %6 = load i32, ptr %4, align 4
  %7 = icmp sgt i32 %6, 0
  br i1 %7, label %.lr.ph39, label %._crit_edge

._crit_edge:                                      ; preds = %list_length.exit.thread, %.lr.ph36, %1
  ret void

.lr.ph39:                                         ; preds = %.lr.ph36, %list_length.exit.thread
  %8 = phi i32 [ %34, %list_length.exit.thread ], [ %6, %.lr.ph36 ]
  %indvars.iv41 = phi i64 [ %indvars.iv.next42, %list_length.exit.thread ], [ 0, %.lr.ph36 ]
  %9 = load ptr, ptr %5, align 8
  %10 = getelementptr inbounds nuw %union.ListCell, ptr %9, i64 %indvars.iv41
  %11 = load ptr, ptr %10, align 8
  %12 = getelementptr inbounds nuw i8, ptr %11, i64 24
  %13 = load ptr, ptr %12, align 8
  %.not.i = icmp eq ptr %13, null
  br i1 %.not.i, label %list_length.exit.thread, label %list_length.exit

list_length.exit:                                 ; preds = %.lr.ph39
  %14 = getelementptr inbounds nuw i8, ptr %13, i64 4
  %15 = load i32, ptr %14, align 4
  %16 = icmp sgt i32 %15, 1
  br i1 %16, label %17, label %list_length.exit.thread

17:                                               ; preds = %list_length.exit
  %18 = getelementptr inbounds nuw i8, ptr %11, i64 56
  %19 = load i8, ptr %18, align 8, !range !4, !noundef !5
  %20 = trunc nuw i8 %19 to i1
  br i1 %20, label %list_length.exit.thread, label %.lr.ph

.lr.ph:                                           ; preds = %17
  %21 = getelementptr inbounds nuw i8, ptr %13, i64 16
  %22 = getelementptr inbounds nuw i8, ptr %11, i64 48
  br label %23

23:                                               ; preds = %.lr.ph, %23
  %indvars.iv = phi i64 [ 0, %.lr.ph ], [ %indvars.iv.next, %23 ]
  %24 = load ptr, ptr %21, align 8
  %25 = getelementptr inbounds nuw %union.ListCell, ptr %24, i64 %indvars.iv
  %26 = load ptr, ptr %25, align 8
  %27 = getelementptr inbounds nuw i8, ptr %26, i64 8
  %28 = load ptr, ptr %27, align 8
  %29 = tail call ptr @pull_var_clause(ptr noundef %28, i32 noundef 26) #8
  %30 = load ptr, ptr %22, align 8
  tail call void @add_vars_to_attr_needed(ptr noundef %0, ptr noundef %29, ptr noundef %30) #8
  tail call void @list_free(ptr noundef %29) #8
  %indvars.iv.next = add nuw nsw i64 %indvars.iv, 1
  %31 = load i32, ptr %14, align 4
  %32 = sext i32 %31 to i64
  %33 = icmp slt i64 %indvars.iv.next, %32
  br i1 %33, label %23, label %list_length.exit.thread.loopexit, !llvm.loop !20

list_length.exit.thread.loopexit:                 ; preds = %23
  %.pre = load i32, ptr %4, align 4
  br label %list_length.exit.thread

list_length.exit.thread:                          ; preds = %list_length.exit.thread.loopexit, %.lr.ph39, %17, %list_length.exit
  %34 = phi i32 [ %.pre, %list_length.exit.thread.loopexit ], [ %8, %.lr.ph39 ], [ %8, %17 ], [ %8, %list_length.exit ]
  %indvars.iv.next42 = add nuw nsw i64 %indvars.iv41, 1
  %35 = sext i32 %34 to i64
  %36 = icmp slt i64 %indvars.iv.next42, %35
  br i1 %36, label %.lr.ph39, label %._crit_edge
}